; Function Attrs: mustprogress nounwind uwtable
define void @_ZN8proxygen15HTTPSessionBase23enableExHeadersSettingsEv(ptr nocapture noundef nonnull align 8 dereferenceable(1582) %this) local_unnamed_addr #5 align 2 personality ptr @__gxx_personality_v0 {
invoke.cont:
  %call_.i.i = getelementptr inbounds i8, ptr %this, i64 992
  %0 = load ptr, ptr %call_.i.i, align 8
  %vtable = load ptr, ptr %0, align 8
  %vfn = getelementptr inbounds i8, ptr %vtable, i64 360
  %1 = load ptr, ptr %vfn, align 8
  %call3 = invoke noundef ptr %1(ptr noundef nonnull align 8 dereferenceable(8) %0)
          to label %invoke.cont2 unwind label %terminate.lpad

invoke.cont2:                                     ; preds = %invoke.cont
  %tobool.not = icmp eq ptr %call3, null
  br i1 %tobool.not, label %if.end, label %if.then

if.then:                                          ; preds = %invoke.cont2
  invoke void @_ZN8proxygen12HTTPSettings10setSettingENS_10SettingsIdEm(ptr noundef nonnull align 8 dereferenceable(24) %call3, i64 noundef 64507, i64 noundef 1)
          to label %invoke.cont4 unwind label %terminate.lpad

invoke.cont4:                                     ; preds = %if.then
  %exHeadersEnabled_ = getelementptr inbounds i8, ptr %this, i64 1580
  %bf.load = load i8, ptr %exHeadersEnabled_, align 4
  %bf.set = or i8 %bf.load, 2
  store i8 %bf.set, ptr %exHeadersEnabled_, align 4
  br label %if.end

if.end:                                           ; preds = %invoke.cont4, %invoke.cont2
  ret void

terminate.lpad:                                   ; preds = %if.then, %invoke.cont
  %2 = landingpad { ptr, i32 }
          catch ptr null
  %3 = extractvalue { ptr, i32 } %2, 0
  tail call void @__clang_call_terminate(ptr %3) #24
  unreachable
}